; Function Attrs: mustprogress nofree norecurse nosync nounwind willreturn memory(argmem: readwrite) uwtable
define noundef ptr @_ZN6icu_779RCEBuffer3getEv(ptr noundef nonnull align 8 captures(none) dereferenceable(208) %0) local_unnamed_addr #10 align 2 {
  %2 = getelementptr inbounds nuw i8, ptr %0, i64 200
  %3 = load i32, ptr %2, align 8, !tbaa !10
  %4 = icmp sgt i32 %3, 0
  br i1 %4, label %5, label %11

5:                                                ; preds = %1
  %6 = getelementptr inbounds nuw i8, ptr %0, i64 192
  %7 = load ptr, ptr %6, align 8, !tbaa !3
  %8 = add nsw i32 %3, -1
  store i32 %8, ptr %2, align 8, !tbaa !10
  %9 = zext nneg i32 %8 to i64
  %10 = getelementptr inbounds nuw %struct.RCEI, ptr %7, i64 %9
  br label %11

11:                                               ; preds = %1, %5
  %.0 = phi ptr [ %10, %5 ], [ null, %1 ]
  ret ptr %.0
}